target datalayout = "e-m:e-p270:32:32-p271:32:32-p272:64:64-i64:64-i128:128-f80:128-n8:16:32:64-S128"
target triple = "x86_64-pc-linux-gnu"

%"class.std::error_code" = type { i32, ptr }

; Function Attrs: mustprogress nounwind uwtable
define linkonce_odr hidden void @_ZNSt10error_codeC2EiRKNSt3_V214error_categoryE(ptr noundef nonnull align 8 dereferenceable(16) %0, i32 noundef %1, ptr noundef nonnull align 8 dereferenceable(8) %2) unnamed_addr #1 comdat align 2 {
  %4 = alloca ptr, align 8
  %5 = alloca i32, align 4
  %6 = alloca ptr, align 8
  store ptr %0, ptr %4, align 8
  store i32 %1, ptr %5, align 4
  store ptr %2, ptr %6, align 8
  %7 = load ptr, ptr %4, align 8
  %8 = getelementptr inbounds nuw %"class.std::error_code", ptr %7, i32 0, i32 0
  %9 = load i32, ptr %5, align 4
  store i32 %9, ptr %8, align 8
  %10 = getelementptr inbounds nuw %"class.std::error_code", ptr %7, i32 0, i32 1
  %11 = load ptr, ptr %6, align 8
  store ptr %11, ptr %10, align 8
  ret void
}

; Function Attrs: mustprogress nounwind uwtable
define linkonce_odr hidden { i32, ptr } @_ZN4llvm15make_error_codeENS_16sampleprof_errorE(i32 noundef %0) #1 comdat {
  %2 = alloca %"class.std::error_code", align 8
  %3 = alloca i32, align 4
  store i32 %0, ptr %3, align 4
  %4 = load i32, ptr %3, align 4
  %5 = call noundef nonnull align 8 dereferenceable(8) ptr @_ZN4llvm19sampleprof_categoryEv()
  call void @_ZNSt10error_codeC2EiRKNSt3_V214error_categoryE(ptr noundef nonnull align 8 dereferenceable(16) %2, i32 noundef %4, ptr noundef nonnull align 8 dereferenceable(8) %5) #2
  %6 = load { i32, ptr }, ptr %2, align 8
  ret { i32, ptr } %6
}

; Function Attrs: mustprogress nounwind uwtable
define linkonce_odr hidden void @_ZNSt10error_codeC2IN4llvm16sampleprof_errorEvEET_(ptr noundef nonnull align 8 dereferenceable(16) %0, i32 noundef %1) unnamed_addr #1 comdat align 2 {
  %3 = alloca ptr, align 8
  %4 = alloca i32, align 4
  %5 = alloca %"class.std::error_code", align 8
  store ptr %0, ptr %3, align 8
  store i32 %1, ptr %4, align 4
  %6 = load ptr, ptr %3, align 8
  %7 = load i32, ptr %4, align 4
  %8 = call { i32, ptr } @_ZN4llvm15make_error_codeENS_16sampleprof_errorE(i32 noundef %7)
  %9 = getelementptr inbounds nuw { i32, ptr }, ptr %5, i32 0, i32 0
  %10 = extractvalue { i32, ptr } %8, 0
  store i32 %10, ptr %9, align 8
  %11 = getelementptr inbounds nuw { i32, ptr }, ptr %5, i32 0, i32 1
  %12 = extractvalue { i32, ptr } %8, 1
  store ptr %12, ptr %11, align 8
  call void @llvm.memcpy.p0.p0.i64(ptr align 8 %6, ptr align 8 %5, i64 16, i1 false)
  ret void
}

; Function Attrs: mustprogress nounwind uwtable
define linkonce_odr hidden noundef zeroext i1 @_ZNKSt10error_codecvbEv(ptr noundef nonnull align 8 dereferenceable(16) %0) #1 comdat align 2 {
  %2 = alloca ptr, align 8
  store ptr %0, ptr %2, align 8
  %3 = load ptr, ptr %2, align 8
  %4 = getelementptr inbounds nuw %"class.std::error_code", ptr %3, i32 0, i32 0
  %5 = load i32, ptr %4, align 8
  %6 = icmp ne i32 %5, 0
  ret i1 %6
}

; Function Attrs: mustprogress nounwind uwtable
define dso_local { i32, ptr } @_ZN4llvm10sampleprof22SampleProfileReaderGCC8readImplEv(ptr noundef nonnull align 8 dereferenceable(280) %0) unnamed_addr #1 align 2 {
  %2 = alloca %"class.std::error_code", align 8
  %3 = alloca ptr, align 8
  store ptr %0, ptr %3, align 8
  %4 = load ptr, ptr %3, align 8
  %5 = call { i32, ptr } @_ZN4llvm10sampleprof22SampleProfileReaderGCC13readNameTableEv(ptr noundef nonnull align 8 dereferenceable(280) %4)
  %6 = getelementptr inbounds nuw { i32, ptr }, ptr %2, i32 0, i32 0
  %7 = extractvalue { i32, ptr } %5, 0
  store i32 %7, ptr %6, align 8
  %8 = getelementptr inbounds nuw { i32, ptr }, ptr %2, i32 0, i32 1
  %9 = extractvalue { i32, ptr } %5, 1
  store ptr %9, ptr %8, align 8
  %10 = call noundef zeroext i1 @_ZNKSt10error_codecvbEv(ptr noundef nonnull align 8 dereferenceable(16) %2) #2
  br i1 %10, label %11, label %12

11:                                               ; preds = %1
  br label %21

12:                                               ; preds = %1
  %13 = call { i32, ptr } @_ZN4llvm10sampleprof22SampleProfileReaderGCC20readFunctionProfilesEv(ptr noundef nonnull align 8 dereferenceable(280) %4)
  %14 = getelementptr inbounds nuw { i32, ptr }, ptr %2, i32 0, i32 0
  %15 = extractvalue { i32, ptr } %13, 0
  store i32 %15, ptr %14, align 8
  %16 = getelementptr inbounds nuw { i32, ptr }, ptr %2, i32 0, i32 1
  %17 = extractvalue { i32, ptr } %13, 1
  store ptr %17, ptr %16, align 8
  %18 = call noundef zeroext i1 @_ZNKSt10error_codecvbEv(ptr noundef nonnull align 8 dereferenceable(16) %2) #2
  br i1 %18, label %19, label %20

19:                                               ; preds = %12
  br label %21

20:                                               ; preds = %12
  call void @_ZNSt10error_codeC2IN4llvm16sampleprof_errorEvEET_(ptr noundef nonnull align 8 dereferenceable(16) %2, i32 noundef 0) #2
  br label %21

21:                                               ; preds = %20, %19, %11
  %22 = load { i32, ptr }, ptr %2, align 8
  ret { i32, ptr } %22
}