; Function Attrs: mustprogress nounwind uwtable
define dso_local { i32, ptr } @_ZN4llvm10sampleprof22SampleProfileReaderGCC8readImplEv(ptr noundef nonnull align 8 dereferenceable(280) %0) unnamed_addr #0 align 2 {
  %2 = tail call { i32, ptr } @_ZN4llvm10sampleprof22SampleProfileReaderGCC13readNameTableEv(ptr noundef nonnull align 8 dereferenceable(280) %0)
  %3 = extractvalue { i32, ptr } %2, 0
  %4 = extractvalue { i32, ptr } %2, 1
  %.not = icmp eq i32 %3, 0
  br i1 %.not, label %5, label %11

5:                                                ; preds = %1
  %6 = tail call { i32, ptr } @_ZN4llvm10sampleprof22SampleProfileReaderGCC20readFunctionProfilesEv(ptr noundef nonnull align 8 dereferenceable(280) %0)
  %7 = extractvalue { i32, ptr } %6, 0
  %8 = extractvalue { i32, ptr } %6, 1
  %.not3 = icmp eq i32 %7, 0
  br i1 %.not3, label %9, label %11

9:                                                ; preds = %5
  %10 = tail call noundef nonnull align 8 dereferenceable(8) ptr @_ZN4llvm19sampleprof_categoryEv() #24
  br label %11

11:                                               ; preds = %5, %1, %9
  %.sroa.6.0 = phi ptr [ %4, %1 ], [ %8, %5 ], [ %10, %9 ]
  %.sroa.0.0 = phi i32 [ %3, %1 ], [ %7, %5 ], [ 0, %9 ]
  %.fca.0.insert = insertvalue { i32, ptr } poison, i32 %.sroa.0.0, 0
  %.fca.1.insert = insertvalue { i32, ptr } %.fca.0.insert, ptr %.sroa.6.0, 1
  ret { i32, ptr } %.fca.1.insert
}